Certificate:
    Data:
        Version: 1 (0x0)
        Serial Number: 1 (0x1)
        Signature Algorithm: sha512WithRSAEncryption
        Issuer: C=PL, ST=Mazovian, L=Warszaw, O=Liza Niamera, OU=pw, CN=Liza Niamera
        Validity
            Not Before: Jan 16 21:36:24 2021 GMT
            Not After : Jan 16 21:36:24 2022 GMT
        Subject: C=PL, ST=Mazovian, L=Warsaw, O=pw_ee, OU=pw, CN=server.company.com
        Subject Public Key Info:
            Public Key Algorithm: rsaEncryption
                RSA Public-Key: (2048 bit)
                Modulus:
                    00:b8:48:5f:f1:00:23:73:cd:2c:4e:ea:9a:37:74:
                    71:ae:3a:ad:36:ff:58:a5:f1:88:eb:9c:8b:ed:20:
                    85:c3:26:e7:8a:92:19:38:5f:d2:6e:60:d8:ad:bf:
                    ae:05:87:c1:43:14:a9:ab:8d:a3:86:86:9e:98:a3:
                    12:3a:fb:6b:68:f2:0c:e4:ac:a1:34:f6:a3:01:e6:
                    7f:fe:70:da:ad:72:53:43:e8:9e:25:9f:d1:e7:0a:
                    40:ea:ac:07:e7:b9:d0:a7:94:e0:fb:9f:21:ad:14:
                    fb:16:ad:d3:40:61:ff:34:38:1a:6a:a6:88:59:c2:
                    84:7a:95:90:5b:f3:d9:1b:5d:36:c0:82:43:43:e7:
                    ba:05:42:b4:b9:ce:e8:2e:53:79:ae:b9:35:a6:22:
                    95:33:07:f5:65:05:fd:02:79:1e:f8:2e:bd:94:72:
                    a2:fc:28:3a:6b:19:00:33:cb:e3:1d:71:ed:15:b2:
                    bd:2c:92:d3:21:84:57:48:5b:28:04:2b:3e:7f:4a:
                    48:da:b1:e7:f8:e1:61:04:c1:73:1b:77:93:fc:e5:
                    91:51:de:b6:32:61:00:83:7b:7c:6e:40:a9:d0:01:
                    cc:52:5f:70:be:d7:27:5c:e7:43:20:f4:2f:bd:39:
                    7a:77:61:6e:41:60:77:b3:28:73:f2:f8:64:56:97:
                    0a:eb
                Exponent: 65537 (0x10001)
    Signature Algorithm: sha512WithRSAEncryption
         c4:36:29:04:99:71:ac:39:7b:d7:74:0b:4d:73:88:07:02:97:
         db:bb:24:28:f2:31:a1:62:6b:a3:0e:ae:3e:07:39:74:28:93:
         a4:45:a8:40:61:ed:fb:bc:d6:35:5f:45:38:a6:7b:d4:31:88:
         c7:84:13:85:04:27:41:88:fe:f9:99:96:e5:b9:77:3a:b2:bd:
         4e:5d:61:41:81:a6:cf:38:68:a7:d4:39:ac:a0:74:69:5e:6e:
         78:cd:0f:8c:32:40:e6:28:a8:27:9c:4f:da:4d:b8:6a:b7:4d:
         14:ff:04:84:e7:99:22:c8:57:4b:47:a3:b9:8a:f8:6d:25:a6:
         0e:fd:ed:45:64:03:a2:d2:6f:bb:c8:a5:e2:92:0a:70:6d:7a:
         d9:30:6f:c1:45:d9:ec:be:06:c7:19:f0:71:fc:90:88:1e:a9:
         c9:ff:d9:c5:f3:84:ea:63:bd:1d:c2:fd:9a:a6:21:c7:56:95:
         e6:c8:08:cf:8b:e8:4c:6f:3f:28:5e:56:dd:5a:37:da:66:1a:
         a5:95:8c:c6:c2:f2:89:c0:4c:ef:1e:2d:a7:98:57:3b:5b:77:
         b2:e4:2d:a8:11:15:11:8a:80:2f:41:1b:2c:73:4f:9e:db:62:
         c3:04:2b:e1:ae:6d:bf:29:63:bd:a3:e4:2f:ca:6a:73:89:11:
         ef:6b:62:47
-----BEGIN CERTIFICATE-----
MIIDTDCCAjQCAQEwDQYJKoZIhvcNAQENBQAwbTELMAkGA1UEBhMCUEwxETAPBgNV
BAgMCE1hem92aWFuMRAwDgYDVQQHDAdXYXJzemF3MRUwEwYDVQQKDAxMaXphIE5p
YW1lcmExCzAJBgNVBAsMAnB3MRUwEwYDVQQDDAxMaXphIE5pYW1lcmEwHhcNMjEw
MTE2MjEzNjI0WhcNMjIwMTE2MjEzNjI0WjBrMQswCQYDVQQGEwJQTDERMA8GA1UE
CAwITWF6b3ZpYW4xDzANBgNVBAcMBldhcnNhdzEOMAwGA1UECgwFcHdfZWUxCzAJ
BgNVBAsMAnB3MRswGQYDVQQDDBJzZXJ2ZXIuY29tcGFueS5jb20wggEiMA0GCSqG
SIb3DQEBAQUAA4IBDwAwggEKAoIBAQC4SF/xACNzzSxO6po3dHGuOq02/1il8Yjr
nIvtIIXDJueKkhk4X9JuYNitv64Fh8FDFKmrjaOGhp6YoxI6+2to8gzkrKE09qMB
5n/+cNqtclND6J4ln9HnCkDqrAfnudCnlOD7nyGtFPsWrdNAYf80OBpqpohZwoR6
lZBb89kbXTbAgkND57oFQrS5zuguU3muuTWmIpUzB/VlBf0CeR74Lr2UcqL8KDpr
GQAzy+Mdce0Vsr0sktMhhFdIWygEKz5/Skjasef44WEEwXMbd5P85ZFR3rYyYQCD
e3xuQKnQAcxSX3C+1ydc50Mg9C+9OXp3YW5BYHezKHPy+GRWlwrrAgMBAAEwDQYJ
KoZIhvcNAQENBQADggEBAMQ2KQSZcaw5e9d0C01ziAcCl9u7JCjyMaFia6MOrj4H
OXQok6RFqEBh7fu81jVfRTime9QxiMeEE4UEJ0GI/vmZluW5dzqyvU5dYUGBps84
aKfUOaygdGlebnjND4wyQOYoqCecT9pNuGq3TRT/BITnmSLIV0tHo7mK+G0lpg79
7UVkA6LSb7vIpeKSCnBtetkwb8FF2ey+BscZ8HH8kIgeqcn/2cXzhOpjvR3C/Zqm
IcdWlebICM+L6ExvPyheVt1aN9pmGqWVjMbC8onATO8eLaeYVztbd7LkLagRFRGK
gC9BGyxzT57bYsMEK+Gubb8pY72j5C/KanOJEe9rYkc=
-----END CERTIFICATE-----
